; Function Attrs: mustprogress uwtable
define hidden void @_ZN13rewriter_core11begin_scopeEv(ptr noundef nonnull align 8 dereferenceable(144) %this) local_unnamed_addr #3 align 2 {
entry:
  %m_scopes = getelementptr inbounds i8, ptr %this, i64 136
  %m_root = getelementptr inbounds i8, ptr %this, i64 120
  %0 = load ptr, ptr %m_root, align 8
  %m_num_qvars = getelementptr inbounds i8, ptr %this, i64 128
  %1 = load i32, ptr %m_num_qvars, align 8
  %2 = load ptr, ptr %m_scopes, align 8
  %cmp.i = icmp eq ptr %2, null
  br i1 %cmp.i, label %if.then.i, label %lor.lhs.false.i

lor.lhs.false.i:                                  ; preds = %entry
  %arrayidx.i = getelementptr inbounds i8, ptr %2, i64 -4
  %3 = load i32, ptr %arrayidx.i, align 4
  %arrayidx4.i = getelementptr inbounds i8, ptr %2, i64 -8
  %4 = load i32, ptr %arrayidx4.i, align 4
  %cmp5.i = icmp eq i32 %3, %4
  br i1 %cmp5.i, label %if.then.i, label %_ZN6vectorIN13rewriter_core5scopeELb0EjE9push_backEOS1_.exit

if.then.i:                                        ; preds = %lor.lhs.false.i, %entry
  tail call void @_ZN6vectorIN13rewriter_core5scopeELb0EjE13expand_vectorEv(ptr noundef nonnull align 8 dereferenceable(8) %m_scopes)
  %.pre.i = load ptr, ptr %m_scopes, align 8
  %arrayidx8.phi.trans.insert.i = getelementptr inbounds i8, ptr %.pre.i, i64 -4
  %.pre1.i = load i32, ptr %arrayidx8.phi.trans.insert.i, align 4
  br label %_ZN6vectorIN13rewriter_core5scopeELb0EjE9push_backEOS1_.exit

_ZN6vectorIN13rewriter_core5scopeELb0EjE9push_backEOS1_.exit: ; preds = %lor.lhs.false.i, %if.then.i
  %5 = phi i32 [ %.pre1.i, %if.then.i ], [ %3, %lor.lhs.false.i ]
  %6 = phi ptr [ %.pre.i, %if.then.i ], [ %2, %lor.lhs.false.i ]
  %idx.ext.i = zext i32 %5 to i64
  %add.ptr.i = getelementptr inbounds %"struct.rewriter_core::scope", ptr %6, i64 %idx.ext.i
  store ptr %0, ptr %add.ptr.i, align 8
  %ref.tmp.sroa.2.0.add.ptr.i.sroa_idx = getelementptr inbounds i8, ptr %add.ptr.i, i64 8
  store i32 %1, ptr %ref.tmp.sroa.2.0.add.ptr.i.sroa_idx, align 8
  %7 = load ptr, ptr %m_scopes, align 8
  %arrayidx10.i = getelementptr inbounds i8, ptr %7, i64 -4
  %8 = load i32, ptr %arrayidx10.i, align 4
  %inc.i = add i32 %8, 1
  store i32 %inc.i, ptr %arrayidx10.i, align 4
  %9 = load ptr, ptr %m_scopes, align 8
  %cmp.i3 = icmp eq ptr %9, null
  br i1 %cmp.i3, label %_ZNK6vectorIN13rewriter_core5scopeELb0EjE4sizeEv.exit, label %if.end.i

if.end.i:                                         ; preds = %_ZN6vectorIN13rewriter_core5scopeELb0EjE9push_backEOS1_.exit
  %arrayidx.i4 = getelementptr inbounds i8, ptr %9, i64 -4
  %10 = load i32, ptr %arrayidx.i4, align 4
  br label %_ZNK6vectorIN13rewriter_core5scopeELb0EjE4sizeEv.exit

_ZNK6vectorIN13rewriter_core5scopeELb0EjE4sizeEv.exit: ; preds = %_ZN6vectorIN13rewriter_core5scopeELb0EjE9push_backEOS1_.exit, %if.end.i
  %retval.0.i = phi i32 [ %10, %if.end.i ], [ 0, %_ZN6vectorIN13rewriter_core5scopeELb0EjE9push_backEOS1_.exit ]
  %m_cache_stack = getelementptr inbounds i8, ptr %this, i64 24
  %11 = load ptr, ptr %m_cache_stack, align 8
  %cmp.i5 = icmp eq ptr %11, null
  br i1 %cmp.i5, label %_ZNK6vectorIP9act_cacheLb0EjE4sizeEv.exit, label %if.end.i6

if.end.i6:                                        ; preds = %_ZNK6vectorIN13rewriter_core5scopeELb0EjE4sizeEv.exit
  %arrayidx.i7 = getelementptr inbounds i8, ptr %11, i64 -4
  %12 = load i32, ptr %arrayidx.i7, align 4
  br label %_ZNK6vectorIP9act_cacheLb0EjE4sizeEv.exit

_ZNK6vectorIP9act_cacheLb0EjE4sizeEv.exit:        ; preds = %_ZNK6vectorIN13rewriter_core5scopeELb0EjE4sizeEv.exit, %if.end.i6
  %retval.0.i8 = phi i32 [ %12, %if.end.i6 ], [ 0, %_ZNK6vectorIN13rewriter_core5scopeELb0EjE4sizeEv.exit ]
  %cmp = icmp eq i32 %retval.0.i, %retval.0.i8
  br i1 %cmp, label %if.then, label %if.end15

if.then:                                          ; preds = %_ZNK6vectorIP9act_cacheLb0EjE4sizeEv.exit
  %call7 = tail call noalias noundef ptr @_ZN6memory8allocateEm(i64 noundef 96)
  %m_manager.i = getelementptr inbounds i8, ptr %this, i64 8
  %13 = load ptr, ptr %m_manager.i, align 8
  tail call void @_ZN9act_cacheC1ER11ast_manager(ptr noundef nonnull align 8 dereferenceable(92) %call7, ptr noundef nonnull align 8 dereferenceable(976) %13)
  %14 = load ptr, ptr %m_cache_stack, align 8
  %cmp.i9 = icmp eq ptr %14, null
  br i1 %cmp.i9, label %if.then.i19, label %lor.lhs.false.i10

lor.lhs.false.i10:                                ; preds = %if.then
  %arrayidx.i11 = getelementptr inbounds i8, ptr %14, i64 -4
  %15 = load i32, ptr %arrayidx.i11, align 4
  %arrayidx4.i12 = getelementptr inbounds i8, ptr %14, i64 -8
  %16 = load i32, ptr %arrayidx4.i12, align 4
  %cmp5.i13 = icmp eq i32 %15, %16
  br i1 %cmp5.i13, label %if.then.i19, label %_ZN6vectorIP9act_cacheLb0EjE9push_backEOS1_.exit

if.then.i19:                                      ; preds = %lor.lhs.false.i10, %if.then
  tail call void @_ZN6vectorIP9act_cacheLb0EjE13expand_vectorEv(ptr noundef nonnull align 8 dereferenceable(8) %m_cache_stack)
  %.pre.i20 = load ptr, ptr %m_cache_stack, align 8
  %arrayidx8.phi.trans.insert.i21 = getelementptr inbounds i8, ptr %.pre.i20, i64 -4
  %.pre1.i22 = load i32, ptr %arrayidx8.phi.trans.insert.i21, align 4
  br label %_ZN6vectorIP9act_cacheLb0EjE9push_backEOS1_.exit

_ZN6vectorIP9act_cacheLb0EjE9push_backEOS1_.exit: ; preds = %lor.lhs.false.i10, %if.then.i19
  %17 = phi i32 [ %.pre1.i22, %if.then.i19 ], [ %15, %lor.lhs.false.i10 ]
  %18 = phi ptr [ %.pre.i20, %if.then.i19 ], [ %14, %lor.lhs.false.i10 ]
  %idx.ext.i15 = zext i32 %17 to i64
  %add.ptr.i16 = getelementptr inbounds ptr, ptr %18, i64 %idx.ext.i15
  store ptr %call7, ptr %add.ptr.i16, align 8
  %19 = load ptr, ptr %m_cache_stack, align 8
  %arrayidx10.i17 = getelementptr inbounds i8, ptr %19, i64 -4
  %20 = load i32, ptr %arrayidx10.i17, align 4
  %inc.i18 = add i32 %20, 1
  store i32 %inc.i18, ptr %arrayidx10.i17, align 4
  %m_proof_gen = getelementptr inbounds i8, ptr %this, i64 16
  %21 = load i8, ptr %m_proof_gen, align 8
  %22 = and i8 %21, 1
  %tobool.not = icmp eq i8 %22, 0
  br i1 %tobool.not, label %if.end15, label %if.then10

if.then10:                                        ; preds = %_ZN6vectorIP9act_cacheLb0EjE9push_backEOS1_.exit
  %m_cache_pr_stack = getelementptr inbounds i8, ptr %this, i64 64
  %call12 = tail call noalias noundef ptr @_ZN6memory8allocateEm(i64 noundef 96)
  %23 = load ptr, ptr %m_manager.i, align 8
  tail call void @_ZN9act_cacheC1ER11ast_manager(ptr noundef nonnull align 8 dereferenceable(92) %call12, ptr noundef nonnull align 8 dereferenceable(976) %23)
  %24 = load ptr, ptr %m_cache_pr_stack, align 8
  %cmp.i24 = icmp eq ptr %24, null
  br i1 %cmp.i24, label %if.then.i34, label %lor.lhs.false.i25

lor.lhs.false.i25:                                ; preds = %if.then10
  %arrayidx.i26 = getelementptr inbounds i8, ptr %24, i64 -4
  %25 = load i32, ptr %arrayidx.i26, align 4
  %arrayidx4.i27 = getelementptr inbounds i8, ptr %24, i64 -8
  %26 = load i32, ptr %arrayidx4.i27, align 4
  %cmp5.i28 = icmp eq i32 %25, %26
  br i1 %cmp5.i28, label %if.then.i34, label %_ZN6vectorIP9act_cacheLb0EjE9push_backEOS1_.exit38

if.then.i34:                                      ; preds = %lor.lhs.false.i25, %if.then10
  tail call void @_ZN6vectorIP9act_cacheLb0EjE13expand_vectorEv(ptr noundef nonnull align 8 dereferenceable(8) %m_cache_pr_stack)
  %.pre.i35 = load ptr, ptr %m_cache_pr_stack, align 8
  %arrayidx8.phi.trans.insert.i36 = getelementptr inbounds i8, ptr %.pre.i35, i64 -4
  %.pre1.i37 = load i32, ptr %arrayidx8.phi.trans.insert.i36, align 4
  br label %_ZN6vectorIP9act_cacheLb0EjE9push_backEOS1_.exit38

_ZN6vectorIP9act_cacheLb0EjE9push_backEOS1_.exit38: ; preds = %lor.lhs.false.i25, %if.then.i34
  %27 = phi i32 [ %.pre1.i37, %if.then.i34 ], [ %25, %lor.lhs.false.i25 ]
  %28 = phi ptr [ %.pre.i35, %if.then.i34 ], [ %24, %lor.lhs.false.i25 ]
  %idx.ext.i30 = zext i32 %27 to i64
  %add.ptr.i31 = getelementptr inbounds ptr, ptr %28, i64 %idx.ext.i30
  store ptr %call12, ptr %add.ptr.i31, align 8
  %29 = load ptr, ptr %m_cache_pr_stack, align 8
  %arrayidx10.i32 = getelementptr inbounds i8, ptr %29, i64 -4
  %30 = load i32, ptr %arrayidx10.i32, align 4
  %inc.i33 = add i32 %30, 1
  store i32 %inc.i33, ptr %arrayidx10.i32, align 4
  br label %if.end15

if.end15:                                         ; preds = %_ZN6vectorIP9act_cacheLb0EjE9push_backEOS1_.exit, %_ZN6vectorIP9act_cacheLb0EjE9push_backEOS1_.exit38, %_ZNK6vectorIP9act_cacheLb0EjE4sizeEv.exit
  %31 = load ptr, ptr %m_cache_stack, align 8
  %idxprom.i = zext i32 %retval.0.i to i64
  %arrayidx.i39 = getelementptr inbounds ptr, ptr %31, i64 %idxprom.i
  %32 = load ptr, ptr %arrayidx.i39, align 8
  %m_cache = getelementptr inbounds i8, ptr %this, i64 32
  store ptr %32, ptr %m_cache, align 8
  tail call void @_ZN9act_cache5resetEv(ptr noundef nonnull align 8 dereferenceable(92) %32)
  %m_proof_gen19 = getelementptr inbounds i8, ptr %this, i64 16
  %33 = load i8, ptr %m_proof_gen19, align 8
  %34 = and i8 %33, 1
  %tobool20.not = icmp eq i8 %34, 0
  br i1 %tobool20.not, label %if.end25, label %if.then21

if.then21:                                        ; preds = %if.end15
  %m_cache_pr_stack22 = getelementptr inbounds i8, ptr %this, i64 64
  %35 = load ptr, ptr %m_cache_pr_stack22, align 8
  %arrayidx.i41 = getelementptr inbounds ptr, ptr %35, i64 %idxprom.i
  %36 = load ptr, ptr %arrayidx.i41, align 8
  %m_cache_pr = getelementptr inbounds i8, ptr %this, i64 72
  store ptr %36, ptr %m_cache_pr, align 8
  tail call void @_ZN9act_cache5resetEv(ptr noundef nonnull align 8 dereferenceable(92) %36)
  br label %if.end25

if.end25:                                         ; preds = %if.then21, %if.end15
  ret void
}